; ModuleID = '49/284.c'
source_filename = "49/284.c"
target datalayout = "e-m:e-p270:32:32-p271:32:32-p272:64:64-i64:64-f80:128-n8:16:32:64-S128"
target triple = "x86_64-pc-linux-gnu"

@.str = private unnamed_addr constant [3 x i8] c"%c\00", align 1
@.str.1 = private unnamed_addr constant [2 x i8] c"\0A\00", align 1

; Function Attrs: noinline nounwind uwtable
define dso_local i32 @main() #0 {
  %1 = alloca i32, align 4
  %2 = alloca i32, align 4
  %3 = alloca i32, align 4
  %4 = alloca i32, align 4
  %5 = alloca i32, align 4
  %6 = alloca i32, align 4
  %7 = alloca i32, align 4
  %8 = alloca [505 x i8], align 16
  store i32 0, i32* %1, align 4
  %9 = getelementptr inbounds [505 x i8], [505 x i8]* %8, i64 0, i64 0
  %10 = call i32 (i8*, ...) bitcast (i32 (...)* @gets to i32 (i8*, ...)*)(i8* %9)
  %11 = getelementptr inbounds [505 x i8], [505 x i8]* %8, i64 0, i64 0
  %12 = call i64 @strlen(i8* %11) #3
  %13 = trunc i64 %12 to i32
  store i32 %13, i32* %5, align 4
  store i32 2, i32* %6, align 4
  br label %14

14:                                               ; preds = %87, %0
  %15 = load i32, i32* %6, align 4
  %16 = load i32, i32* %5, align 4
  %17 = icmp sle i32 %15, %16
  br i1 %17, label %18, label %90

18:                                               ; preds = %14
  store i32 0, i32* %3, align 4
  br label %19

19:                                               ; preds = %83, %18
  %20 = load i32, i32* %3, align 4
  %21 = load i32, i32* %5, align 4
  %22 = load i32, i32* %6, align 4
  %23 = sub nsw i32 %21, %22
  %24 = icmp sle i32 %20, %23
  br i1 %24, label %25, label %86

25:                                               ; preds = %19
  store i32 1, i32* %7, align 4
  %26 = load i32, i32* %3, align 4
  %27 = load i32, i32* %6, align 4
  %28 = add nsw i32 %26, %27
  %29 = sub nsw i32 %28, 1
  store i32 %29, i32* %4, align 4
  %30 = load i32, i32* %3, align 4
  store i32 %30, i32* %2, align 4
  br label %31

31:                                               ; preds = %58, %25
  %32 = load i32, i32* %2, align 4
  %33 = load i32, i32* %3, align 4
  %34 = load i32, i32* %4, align 4
  %35 = load i32, i32* %3, align 4
  %36 = sub nsw i32 %34, %35
  %37 = sdiv i32 %36, 2
  %38 = add nsw i32 %33, %37
  %39 = icmp sle i32 %32, %38
  br i1 %39, label %40, label %61

40:                                               ; preds = %31
  %41 = load i32, i32* %2, align 4
  %42 = sext i32 %41 to i64
  %43 = getelementptr inbounds [505 x i8], [505 x i8]* %8, i64 0, i64 %42
  %44 = load i8, i8* %43, align 1
  %45 = sext i8 %44 to i32
  %46 = load i32, i32* %4, align 4
  %47 = load i32, i32* %3, align 4
  %48 = add nsw i32 %46, %47
  %49 = load i32, i32* %2, align 4
  %50 = sub nsw i32 %48, %49
  %51 = sext i32 %50 to i64
  %52 = getelementptr inbounds [505 x i8], [505 x i8]* %8, i64 0, i64 %51
  %53 = load i8, i8* %52, align 1
  %54 = sext i8 %53 to i32
  %55 = icmp ne i32 %45, %54
  br i1 %55, label %56, label %57

56:                                               ; preds = %40
  store i32 0, i32* %7, align 4
  br label %61

57:                                               ; preds = %40
  br label %58

58:                                               ; preds = %57
  %59 = load i32, i32* %2, align 4
  %60 = add nsw i32 %59, 1
  store i32 %60, i32* %2, align 4
  br label %31

61:                                               ; preds = %56, %31
  %62 = load i32, i32* %7, align 4
  %63 = icmp ne i32 %62, 0
  br i1 %63, label %64, label %82

64:                                               ; preds = %61
  %65 = load i32, i32* %3, align 4
  store i32 %65, i32* %2, align 4
  br label %66

66:                                               ; preds = %77, %64
  %67 = load i32, i32* %2, align 4
  %68 = load i32, i32* %4, align 4
  %69 = icmp sle i32 %67, %68
  br i1 %69, label %70, label %80

70:                                               ; preds = %66
  %71 = load i32, i32* %2, align 4
  %72 = sext i32 %71 to i64
  %73 = getelementptr inbounds [505 x i8], [505 x i8]* %8, i64 0, i64 %72
  %74 = load i8, i8* %73, align 1
  %75 = sext i8 %74 to i32
  %76 = call i32 (i8*, ...) @printf(i8* getelementptr inbounds ([3 x i8], [3 x i8]* @.str, i64 0, i64 0), i32 %75)
  br label %77

77:                                               ; preds = %70
  %78 = load i32, i32* %2, align 4
  %79 = add nsw i32 %78, 1
  store i32 %79, i32* %2, align 4
  br label %66

80:                                               ; preds = %66
  %81 = call i32 (i8*, ...) @printf(i8* getelementptr inbounds ([2 x i8], [2 x i8]* @.str.1, i64 0, i64 0))
  br label %82

82:                                               ; preds = %80, %61
  br label %83

83:                                               ; preds = %82
  %84 = load i32, i32* %3, align 4
  %85 = add nsw i32 %84, 1
  store i32 %85, i32* %3, align 4
  br label %19

86:                                               ; preds = %19
  br label %87

87:                                               ; preds = %86
  %88 = load i32, i32* %6, align 4
  %89 = add nsw i32 %88, 1
  store i32 %89, i32* %6, align 4
  br label %14

90:                                               ; preds = %14
  ret i32 0
}

declare dso_local i32 @gets(...) #1

; Function Attrs: nounwind readonly
declare dso_local i64 @strlen(i8*) #2

declare dso_local i32 @printf(i8*, ...) #1


!llvm.module.flags = !{!0}
!llvm.ident = !{!1}

!0 = !{i32 1, !"wchar_size", i32 4}
!1 = !{!"clang version 10.0.0-4ubuntu1 "}
